target datalayout = "e-m:e-p270:32:32-p271:32:32-p272:64:64-i64:64-i128:128-f80:128-n8:16:32:64-S128"
target triple = "x86_64-unknown-linux-gnu"

%"class.icu_75::RegexPattern" = type { %"class.icu_75::UObject", ptr, ptr, i32, ptr, %"class.icu_75::UnicodeString", ptr, ptr, i32, i32, i32, i32, ptr, i32, i32, i32, ptr, i32, ptr, i8, ptr }
%"class.icu_75::UObject" = type { ptr }
%"class.icu_75::UnicodeString" = type { %"class.icu_75::Replaceable", %"union.icu_75::UnicodeString::StackBufferOrFields" }
%"class.icu_75::Replaceable" = type { %"class.icu_75::UObject" }
%"union.icu_75::UnicodeString::StackBufferOrFields" = type { %struct.anon.0, [32 x i8] }
%struct.anon.0 = type { i16, i32, i32, ptr }
%struct.anon = type { i16, [27 x i16] }

@_ZTVN6icu_757UObjectE = external unnamed_addr constant { [5 x ptr] }, align 8
@_ZTVN6icu_7513UnicodeStringE = external unnamed_addr constant { [13 x ptr] }, align 8
@_ZTVN6icu_7511ReplaceableE = external unnamed_addr constant { [13 x ptr] }, align 8

; Function Attrs: mustprogress nounwind uwtable
define linkonce_odr void @_ZN6icu_757UObjectC2Ev(ptr noundef nonnull align 8 dereferenceable(8) %this) unnamed_addr #0 comdat align 2 {
entry:
  %this.addr = alloca ptr, align 8
  store ptr %this, ptr %this.addr, align 8
  %this1 = load ptr, ptr %this.addr, align 8
  store ptr getelementptr inbounds ({ [5 x ptr] }, ptr @_ZTVN6icu_757UObjectE, i32 0, i32 0, i32 2), ptr %this1, align 8
  ret void
}

; Function Attrs: mustprogress nounwind uwtable
define linkonce_odr void @_ZN6icu_7511ReplaceableC2Ev(ptr noundef nonnull align 8 dereferenceable(8) %this) unnamed_addr #0 comdat align 2 {
entry:
  %this.addr = alloca ptr, align 8
  store ptr %this, ptr %this.addr, align 8
  %this1 = load ptr, ptr %this.addr, align 8
  call void @_ZN6icu_757UObjectC2Ev(ptr noundef nonnull align 8 dereferenceable(8) %this1) #9
  store ptr getelementptr inbounds ({ [13 x ptr] }, ptr @_ZTVN6icu_7511ReplaceableE, i32 0, i32 0, i32 2), ptr %this1, align 8
  ret void
}

; Function Attrs: mustprogress uwtable
define linkonce_odr void @_ZN6icu_7513UnicodeStringC2Ev(ptr noundef nonnull align 8 dereferenceable(64) %this) unnamed_addr #1 comdat align 2 {
entry:
  %this.addr = alloca ptr, align 8
  store ptr %this, ptr %this.addr, align 8
  %this1 = load ptr, ptr %this.addr, align 8
  call void @_ZN6icu_7511ReplaceableC2Ev(ptr noundef nonnull align 8 dereferenceable(8) %this1)
  store ptr getelementptr inbounds ({ [13 x ptr] }, ptr @_ZTVN6icu_7513UnicodeStringE, i32 0, i32 0, i32 2), ptr %this1, align 8
  %fUnion2 = getelementptr inbounds %"class.icu_75::UnicodeString", ptr %this1, i32 0, i32 1
  %fLengthAndFlags = getelementptr inbounds %struct.anon, ptr %fUnion2, i32 0, i32 0
  store i16 2, ptr %fLengthAndFlags, align 8
  ret void
}

; Function Attrs: mustprogress uwtable
define void @_ZNK6icu_7512RegexPattern7patternEv(ptr noalias sret(%"class.icu_75::UnicodeString") align 8 %agg.result, ptr noundef nonnull align 8 dereferenceable(200) %this) unnamed_addr #1 align 2 personality ptr @__gxx_personality_v0 {
entry:
  %result.ptr = alloca ptr, align 8
  %this.addr = alloca ptr, align 8
  %status = alloca i32, align 4
  %nativeLen = alloca i64, align 8
  %len16 = alloca i32, align 4
  %nrvo = alloca i1, align 1
  %resultChars = alloca ptr, align 8
  %exn.slot = alloca ptr, align 8
  %ehselector.slot = alloca i32, align 4
  store ptr %agg.result, ptr %result.ptr, align 8
  store ptr %this, ptr %this.addr, align 8
  %this1 = load ptr, ptr %this.addr, align 8
  %fPatternString = getelementptr inbounds %"class.icu_75::RegexPattern", ptr %this1, i32 0, i32 2
  %0 = load ptr, ptr %fPatternString, align 8
  %cmp = icmp ne ptr %0, null
  br i1 %cmp, label %if.then, label %if.else

if.then:                                          ; preds = %entry
  %fPatternString2 = getelementptr inbounds %"class.icu_75::RegexPattern", ptr %this1, i32 0, i32 2
  %1 = load ptr, ptr %fPatternString2, align 8
  call void @_ZN6icu_7513UnicodeStringC1ERKS0_(ptr noundef nonnull align 8 dereferenceable(64) %agg.result, ptr noundef nonnull align 8 dereferenceable(64) %1)
  br label %return

if.else:                                          ; preds = %entry
  %fPattern = getelementptr inbounds %"class.icu_75::RegexPattern", ptr %this1, i32 0, i32 1
  %2 = load ptr, ptr %fPattern, align 8
  %cmp3 = icmp eq ptr %2, null
  br i1 %cmp3, label %if.then4, label %if.else5

if.then4:                                         ; preds = %if.else
  call void @_ZN6icu_7513UnicodeStringC2Ev(ptr noundef nonnull align 8 dereferenceable(64) %agg.result)
  br label %return

if.else5:                                         ; preds = %if.else
  store i32 0, ptr %status, align 4
  %fPattern6 = getelementptr inbounds %"class.icu_75::RegexPattern", ptr %this1, i32 0, i32 1
  %3 = load ptr, ptr %fPattern6, align 8
  %call = call i64 @utext_nativeLength_75(ptr noundef %3)
  store i64 %call, ptr %nativeLen, align 8
  %fPattern7 = getelementptr inbounds %"class.icu_75::RegexPattern", ptr %this1, i32 0, i32 1
  %4 = load ptr, ptr %fPattern7, align 8
  %5 = load i64, ptr %nativeLen, align 8
  %call8 = call i32 @utext_extract_75(ptr noundef %4, i64 noundef 0, i64 noundef %5, ptr noundef null, i32 noundef 0, ptr noundef %status)
  store i32 %call8, ptr %len16, align 4
  store i1 false, ptr %nrvo, align 1
  call void @_ZN6icu_7513UnicodeStringC2Ev(ptr noundef nonnull align 8 dereferenceable(64) %agg.result)
  store i32 0, ptr %status, align 4
  %6 = load i32, ptr %len16, align 4
  %call9 = invoke noundef ptr @_ZN6icu_7513UnicodeString9getBufferEi(ptr noundef nonnull align 8 dereferenceable(64) %agg.result, i32 noundef %6)
          to label %invoke.cont unwind label %lpad

invoke.cont:                                      ; preds = %if.else5
  store ptr %call9, ptr %resultChars, align 8
  %fPattern10 = getelementptr inbounds %"class.icu_75::RegexPattern", ptr %this1, i32 0, i32 1
  %7 = load ptr, ptr %fPattern10, align 8
  %8 = load i64, ptr %nativeLen, align 8
  %9 = load ptr, ptr %resultChars, align 8
  %10 = load i32, ptr %len16, align 4
  %call12 = invoke i32 @utext_extract_75(ptr noundef %7, i64 noundef 0, i64 noundef %8, ptr noundef %9, i32 noundef %10, ptr noundef %status)
          to label %invoke.cont11 unwind label %lpad

invoke.cont11:                                    ; preds = %invoke.cont
  %11 = load i32, ptr %len16, align 4
  invoke void @_ZN6icu_7513UnicodeString13releaseBufferEi(ptr noundef nonnull align 8 dereferenceable(64) %agg.result, i32 noundef %11)
          to label %invoke.cont13 unwind label %lpad

invoke.cont13:                                    ; preds = %invoke.cont11
  store i1 true, ptr %nrvo, align 1
  %nrvo.val = load i1, ptr %nrvo, align 1
  br i1 %nrvo.val, label %nrvo.skipdtor, label %nrvo.unused

lpad:                                             ; preds = %invoke.cont11, %invoke.cont, %if.else5
  %12 = landingpad { ptr, i32 }
          cleanup
  %13 = extractvalue { ptr, i32 } %12, 0
  store ptr %13, ptr %exn.slot, align 8
  %14 = extractvalue { ptr, i32 } %12, 1
  store i32 %14, ptr %ehselector.slot, align 4
  call void @_ZN6icu_7513UnicodeStringD1Ev(ptr noundef nonnull align 8 dereferenceable(64) %agg.result) #9
  br label %eh.resume

nrvo.unused:                                      ; preds = %invoke.cont13
  call void @_ZN6icu_7513UnicodeStringD1Ev(ptr noundef nonnull align 8 dereferenceable(64) %agg.result) #9
  br label %nrvo.skipdtor

nrvo.skipdtor:                                    ; preds = %nrvo.unused, %invoke.cont13
  br label %return

return:                                           ; preds = %nrvo.skipdtor, %if.then4, %if.then
  ret void

eh.resume:                                        ; preds = %lpad
  %exn = load ptr, ptr %exn.slot, align 8
  %sel = load i32, ptr %ehselector.slot, align 4
  %lpad.val = insertvalue { ptr, i32 } poison, ptr %exn, 0
  %lpad.val14 = insertvalue { ptr, i32 } %lpad.val, i32 %sel, 1
  resume { ptr, i32 } %lpad.val14
}