; Function Attrs: mustprogress uwtable
define void @_ZNK6icu_7512RegexPattern7patternEv(ptr noalias sret(%"class.icu_75::UnicodeString") align 8 %agg.result, ptr nocapture noundef nonnull readonly align 8 dereferenceable(200) %this) unnamed_addr #1 align 2 personality ptr @__gxx_personality_v0 {
entry:
  %status = alloca i32, align 4
  %fPatternString = getelementptr inbounds i8, ptr %this, i64 16
  %0 = load ptr, ptr %fPatternString, align 8
  %cmp.not = icmp eq ptr %0, null
  br i1 %cmp.not, label %if.else, label %if.then

if.then:                                          ; preds = %entry
  tail call void @_ZN6icu_7513UnicodeStringC1ERKS0_(ptr noundef nonnull align 8 dereferenceable(64) %agg.result, ptr noundef nonnull align 8 dereferenceable(64) %0)
  br label %return

if.else:                                          ; preds = %entry
  %fPattern = getelementptr inbounds i8, ptr %this, i64 8
  %1 = load ptr, ptr %fPattern, align 8
  %cmp3 = icmp eq ptr %1, null
  br i1 %cmp3, label %if.then4, label %if.else5

if.then4:                                         ; preds = %if.else
  store ptr getelementptr inbounds ({ [13 x ptr] }, ptr @_ZTVN6icu_7513UnicodeStringE, i64 0, i32 0, i64 2), ptr %agg.result, align 8
  %fUnion2.i = getelementptr inbounds i8, ptr %agg.result, i64 8
  store i16 2, ptr %fUnion2.i, align 8
  br label %return

if.else5:                                         ; preds = %if.else
  store i32 0, ptr %status, align 4
  %call = tail call i64 @utext_nativeLength_75(ptr noundef nonnull %1)
  %2 = load ptr, ptr %fPattern, align 8
  %call8 = call i32 @utext_extract_75(ptr noundef %2, i64 noundef 0, i64 noundef %call, ptr noundef null, i32 noundef 0, ptr noundef nonnull %status)
  store ptr getelementptr inbounds ({ [13 x ptr] }, ptr @_ZTVN6icu_7513UnicodeStringE, i64 0, i32 0, i64 2), ptr %agg.result, align 8
  %fUnion2.i4 = getelementptr inbounds i8, ptr %agg.result, i64 8
  store i16 2, ptr %fUnion2.i4, align 8
  store i32 0, ptr %status, align 4
  %call9 = invoke noundef ptr @_ZN6icu_7513UnicodeString9getBufferEi(ptr noundef nonnull align 8 dereferenceable(64) %agg.result, i32 noundef %call8)
          to label %invoke.cont unwind label %lpad

invoke.cont:                                      ; preds = %if.else5
  %3 = load ptr, ptr %fPattern, align 8
  %call12 = invoke i32 @utext_extract_75(ptr noundef %3, i64 noundef 0, i64 noundef %call, ptr noundef %call9, i32 noundef %call8, ptr noundef nonnull %status)
          to label %invoke.cont11 unwind label %lpad

invoke.cont11:                                    ; preds = %invoke.cont
  invoke void @_ZN6icu_7513UnicodeString13releaseBufferEi(ptr noundef nonnull align 8 dereferenceable(64) %agg.result, i32 noundef %call8)
          to label %return unwind label %lpad

lpad:                                             ; preds = %invoke.cont11, %invoke.cont, %if.else5
  %4 = landingpad { ptr, i32 }
          cleanup
  call void @_ZN6icu_7513UnicodeStringD1Ev(ptr noundef nonnull align 8 dereferenceable(64) %agg.result) #11
  resume { ptr, i32 } %4

return:                                           ; preds = %invoke.cont11, %if.then4, %if.then
  ret void
}